target datalayout = "e-m:e-p270:32:32-p271:32:32-p272:64:64-i64:64-i128:128-f80:128-n8:16:32:64-S128"
target triple = "x86_64-pc-linux-gnu"

%struct.RelFileLocator = type { i32, i32, i32 }
%struct.PendingRelDelete = type { %struct.RelFileLocator, i32, i8, i32, ptr }

@pendingDeletes = internal global ptr null, align 8

; Function Attrs: nounwind uwtable
define dso_local void @RelationPreserveStorage(i64 %0, i32 %1, i1 noundef zeroext %2) #0 {
  %4 = alloca %struct.RelFileLocator, align 4
  %5 = alloca { i64, i32 }, align 4
  %6 = alloca i8, align 1
  %7 = alloca ptr, align 8
  %8 = alloca ptr, align 8
  %9 = alloca ptr, align 8
  %10 = getelementptr inbounds nuw { i64, i32 }, ptr %5, i32 0, i32 0
  store i64 %0, ptr %10, align 4
  %11 = getelementptr inbounds nuw { i64, i32 }, ptr %5, i32 0, i32 1
  store i32 %1, ptr %11, align 4
  call void @llvm.memcpy.p0.p0.i64(ptr align 4 %4, ptr align 4 %5, i64 12, i1 false)
  %12 = zext i1 %2 to i8
  store i8 %12, ptr %6, align 1
  call void @llvm.lifetime.start.p0(i64 8, ptr %7) #8
  call void @llvm.lifetime.start.p0(i64 8, ptr %8) #8
  call void @llvm.lifetime.start.p0(i64 8, ptr %9) #8
  store ptr null, ptr %8, align 8
  %13 = load ptr, ptr @pendingDeletes, align 8
  store ptr %13, ptr %7, align 8
  br label %14

14:                                               ; preds = %68, %3
  %15 = load ptr, ptr %7, align 8
  %16 = icmp ne ptr %15, null
  br i1 %16, label %17, label %70

17:                                               ; preds = %14
  %18 = load ptr, ptr %7, align 8
  %19 = getelementptr inbounds nuw %struct.PendingRelDelete, ptr %18, i32 0, i32 4
  %20 = load ptr, ptr %19, align 8
  store ptr %20, ptr %9, align 8
  %21 = getelementptr inbounds nuw %struct.RelFileLocator, ptr %4, i32 0, i32 2
  %22 = load i32, ptr %21, align 4
  %23 = load ptr, ptr %7, align 8
  %24 = getelementptr inbounds nuw %struct.PendingRelDelete, ptr %23, i32 0, i32 0
  %25 = getelementptr inbounds nuw %struct.RelFileLocator, ptr %24, i32 0, i32 2
  %26 = load i32, ptr %25, align 8
  %27 = icmp eq i32 %22, %26
  br i1 %27, label %28, label %65

28:                                               ; preds = %17
  %29 = getelementptr inbounds nuw %struct.RelFileLocator, ptr %4, i32 0, i32 1
  %30 = load i32, ptr %29, align 4
  %31 = load ptr, ptr %7, align 8
  %32 = getelementptr inbounds nuw %struct.PendingRelDelete, ptr %31, i32 0, i32 0
  %33 = getelementptr inbounds nuw %struct.RelFileLocator, ptr %32, i32 0, i32 1
  %34 = load i32, ptr %33, align 4
  %35 = icmp eq i32 %30, %34
  br i1 %35, label %36, label %65

36:                                               ; preds = %28
  %37 = getelementptr inbounds nuw %struct.RelFileLocator, ptr %4, i32 0, i32 0
  %38 = load i32, ptr %37, align 4
  %39 = load ptr, ptr %7, align 8
  %40 = getelementptr inbounds nuw %struct.PendingRelDelete, ptr %39, i32 0, i32 0
  %41 = getelementptr inbounds nuw %struct.RelFileLocator, ptr %40, i32 0, i32 0
  %42 = load i32, ptr %41, align 8
  %43 = icmp eq i32 %38, %42
  br i1 %43, label %44, label %65

44:                                               ; preds = %36
  %45 = load ptr, ptr %7, align 8
  %46 = getelementptr inbounds nuw %struct.PendingRelDelete, ptr %45, i32 0, i32 2
  %47 = load i8, ptr %46, align 8, !range !4, !noundef !5
  %48 = trunc i8 %47 to i1
  %49 = zext i1 %48 to i32
  %50 = load i8, ptr %6, align 1, !range !4, !noundef !5
  %51 = trunc i8 %50 to i1
  %52 = zext i1 %51 to i32
  %53 = icmp eq i32 %49, %52
  br i1 %53, label %54, label %65

54:                                               ; preds = %44
  %55 = load ptr, ptr %8, align 8
  %56 = icmp ne ptr %55, null
  br i1 %56, label %57, label %61

57:                                               ; preds = %54
  %58 = load ptr, ptr %9, align 8
  %59 = load ptr, ptr %8, align 8
  %60 = getelementptr inbounds nuw %struct.PendingRelDelete, ptr %59, i32 0, i32 4
  store ptr %58, ptr %60, align 8
  br label %63

61:                                               ; preds = %54
  %62 = load ptr, ptr %9, align 8
  store ptr %62, ptr @pendingDeletes, align 8
  br label %63

63:                                               ; preds = %61, %57
  %64 = load ptr, ptr %7, align 8
  call void @pfree(ptr noundef %64)
  br label %67

65:                                               ; preds = %44, %36, %28, %17
  %66 = load ptr, ptr %7, align 8
  store ptr %66, ptr %8, align 8
  br label %67

67:                                               ; preds = %65, %63
  br label %68

68:                                               ; preds = %67
  %69 = load ptr, ptr %9, align 8
  store ptr %69, ptr %7, align 8
  br label %14, !llvm.loop !6

70:                                               ; preds = %14
  call void @llvm.lifetime.end.p0(i64 8, ptr %9) #8
  call void @llvm.lifetime.end.p0(i64 8, ptr %8) #8
  call void @llvm.lifetime.end.p0(i64 8, ptr %7) #8
  ret void
}