; Function Attrs: nounwind uwtable
define dso_local void @RelationPreserveStorage(i64 %0, i32 %1, i1 noundef zeroext %2) local_unnamed_addr #0 {
  %.sroa.013.0.extract.trunc = trunc i64 %0 to i32
  %.sroa.214.0.extract.shift = lshr i64 %0, 32
  %.sroa.214.0.extract.trunc = trunc nuw i64 %.sroa.214.0.extract.shift to i32
  %4 = load ptr, ptr @pendingDeletes, align 8
  %.not17 = icmp eq ptr %4, null
  br i1 %.not17, label %._crit_edge, label %.lr.ph

.lr.ph:                                           ; preds = %3
  %5 = zext i1 %2 to i8
  br label %6

6:                                                ; preds = %.lr.ph, %28
  %.019 = phi ptr [ %4, %.lr.ph ], [ %8, %28 ]
  %.01518 = phi ptr [ null, %.lr.ph ], [ %.1, %28 ]
  %7 = getelementptr inbounds nuw i8, ptr %.019, i64 24
  %8 = load ptr, ptr %7, align 8
  %9 = getelementptr inbounds nuw i8, ptr %.019, i64 8
  %10 = load i32, ptr %9, align 8
  %11 = icmp eq i32 %1, %10
  br i1 %11, label %12, label %28

12:                                               ; preds = %6
  %13 = getelementptr inbounds nuw i8, ptr %.019, i64 4
  %14 = load i32, ptr %13, align 4
  %15 = icmp eq i32 %14, %.sroa.214.0.extract.trunc
  br i1 %15, label %16, label %28

16:                                               ; preds = %12
  %17 = load i32, ptr %.019, align 8
  %18 = icmp eq i32 %17, %.sroa.013.0.extract.trunc
  br i1 %18, label %19, label %28

19:                                               ; preds = %16
  %20 = getelementptr inbounds nuw i8, ptr %.019, i64 16
  %21 = load i8, ptr %20, align 8, !range !4, !noundef !5
  %22 = icmp eq i8 %21, %5
  br i1 %22, label %23, label %28

23:                                               ; preds = %19
  %.not16 = icmp eq ptr %.01518, null
  br i1 %.not16, label %26, label %24

24:                                               ; preds = %23
  %25 = getelementptr inbounds nuw i8, ptr %.01518, i64 24
  store ptr %8, ptr %25, align 8
  br label %27

26:                                               ; preds = %23
  store ptr %8, ptr @pendingDeletes, align 8
  br label %27

27:                                               ; preds = %26, %24
  tail call void @pfree(ptr noundef nonnull %.019) #8
  br label %28

28:                                               ; preds = %6, %12, %16, %19, %27
  %.1 = phi ptr [ %.01518, %27 ], [ %.019, %19 ], [ %.019, %16 ], [ %.019, %12 ], [ %.019, %6 ]
  %.not = icmp eq ptr %8, null
  br i1 %.not, label %._crit_edge, label %6, !llvm.loop !6

._crit_edge:                                      ; preds = %28, %3
  ret void
}